; Function Attrs: inlinehint mustprogress nounwind uwtable
define internal void @_ZN9grpc_core12_GLOBAL__N_117XdsOverrideHostLb6PickerD2Ev(ptr noundef nonnull readonly align 8 captures(none) dereferenceable(40) %0) unnamed_addr #14 align 2 personality ptr @__gxx_personality_v0 {
  %2 = getelementptr inbounds nuw i8, ptr %0, i64 24
  %3 = load ptr, ptr %2, align 8, !tbaa !138
  %.not.i = icmp eq ptr %3, null
  br i1 %.not.i, label %_ZN9grpc_core13RefCountedPtrINS_19LoadBalancingPolicy16SubchannelPickerEED2Ev.exit, label %4

4:                                                ; preds = %1
  %5 = getelementptr inbounds nuw i8, ptr %3, i64 8
  %6 = atomicrmw add ptr %5, i64 -4294967295 acq_rel, align 8
  %.mask.i.i = and i64 %6, -4294967296
  %7 = icmp eq i64 %.mask.i.i, 4294967296
  br i1 %7, label %8, label %.noexc.i, !prof !47

8:                                                ; preds = %4
  %9 = load ptr, ptr %3, align 8, !tbaa !6
  %10 = getelementptr inbounds nuw i8, ptr %9, i64 16
  %11 = load ptr, ptr %10, align 8
  invoke void %11(ptr noundef nonnull align 8 dereferenceable(16) %3)
          to label %.noexc.i unwind label %18

.noexc.i:                                         ; preds = %8, %4
  %12 = atomicrmw sub ptr %5, i64 1 acq_rel, align 8
  %13 = icmp eq i64 %12, 1
  br i1 %13, label %14, label %_ZN9grpc_core13RefCountedPtrINS_19LoadBalancingPolicy16SubchannelPickerEED2Ev.exit, !prof !47

14:                                               ; preds = %.noexc.i
  %15 = load ptr, ptr %3, align 8, !tbaa !6
  %16 = getelementptr inbounds nuw i8, ptr %15, i64 8
  %17 = load ptr, ptr %16, align 8
  tail call void %17(ptr noundef nonnull align 8 dereferenceable(16) %3) #40
  br label %_ZN9grpc_core13RefCountedPtrINS_19LoadBalancingPolicy16SubchannelPickerEED2Ev.exit

18:                                               ; preds = %8
  %19 = landingpad { ptr, i32 }
          catch ptr null
  %20 = extractvalue { ptr, i32 } %19, 0
  tail call void @__clang_call_terminate(ptr %20) #42
  unreachable

_ZN9grpc_core13RefCountedPtrINS_19LoadBalancingPolicy16SubchannelPickerEED2Ev.exit: ; preds = %1, %.noexc.i, %14
  %21 = getelementptr inbounds nuw i8, ptr %0, i64 16
  %.val = load ptr, ptr %21, align 8, !tbaa !170
  %.not.i1 = icmp eq ptr %.val, null
  br i1 %.not.i1, label %_ZN9grpc_core13RefCountedPtrINS_12_GLOBAL__N_117XdsOverrideHostLbEED2Ev.exit, label %22

22:                                               ; preds = %_ZN9grpc_core13RefCountedPtrINS_19LoadBalancingPolicy16SubchannelPickerEED2Ev.exit
  %23 = getelementptr inbounds nuw i8, ptr %.val, i64 8
  %24 = atomicrmw sub ptr %23, i64 1 acq_rel, align 8
  %25 = icmp eq i64 %24, 1
  br i1 %25, label %26, label %_ZN9grpc_core13RefCountedPtrINS_12_GLOBAL__N_117XdsOverrideHostLbEED2Ev.exit, !prof !47

26:                                               ; preds = %22
  %27 = load ptr, ptr %.val, align 8, !tbaa !6
  %28 = getelementptr inbounds nuw i8, ptr %27, i64 16
  %29 = load ptr, ptr %28, align 8
  tail call void %29(ptr noundef nonnull align 8 dereferenceable(56) %.val) #40
  br label %_ZN9grpc_core13RefCountedPtrINS_12_GLOBAL__N_117XdsOverrideHostLbEED2Ev.exit

_ZN9grpc_core13RefCountedPtrINS_12_GLOBAL__N_117XdsOverrideHostLbEED2Ev.exit: ; preds = %_ZN9grpc_core13RefCountedPtrINS_19LoadBalancingPolicy16SubchannelPickerEED2Ev.exit, %22, %26
  ret void
}